target datalayout = "e-m:e-p270:32:32-p271:32:32-p272:64:64-i64:64-i128:128-f80:128-n8:16:32:64-S128"
target triple = "x86_64-pc-linux-gnu"

%struct.AVChannelLayout = type { i32, i32, %union.anon.1, ptr }
%union.anon.1 = type { i64 }
%struct.AVRational = type { i32, i32 }
%struct.NormalizeLocal = type { i16, float, float }
%struct.AVFrame = type { [8 x ptr], [8 x i32], ptr, i32, i32, i32, i32, i32, %struct.AVRational, i64, i64, %struct.AVRational, i32, ptr, i32, i32, [8 x ptr], ptr, i32, ptr, i32, i32, i32, i32, i32, i32, i32, i64, ptr, i32, ptr, ptr, i64, i64, i64, i64, ptr, %struct.AVChannelLayout, i64 }

; Function Attrs: nounwind uwtable
define internal void @find_min_max_planar_16(ptr noundef %0, ptr noundef %1, ptr noundef %2, ptr noundef %3) #2 {
  %5 = alloca ptr, align 8
  %6 = alloca ptr, align 8
  %7 = alloca ptr, align 8
  %8 = alloca ptr, align 8
  %9 = alloca i32, align 4
  %10 = alloca i32, align 4
  %11 = alloca ptr, align 8
  %12 = alloca ptr, align 8
  %13 = alloca ptr, align 8
  %14 = alloca i32, align 4
  store ptr %0, ptr %5, align 8, !tbaa !22
  store ptr %1, ptr %6, align 8, !tbaa !26
  store ptr %2, ptr %7, align 8, !tbaa !82
  store ptr %3, ptr %8, align 8, !tbaa !82
  %15 = load ptr, ptr %6, align 8, !tbaa !26
  %16 = getelementptr inbounds nuw %struct.AVFrame, ptr %15, i32 0, i32 0
  %17 = getelementptr inbounds [8 x ptr], ptr %16, i64 0, i64 2
  %18 = load ptr, ptr %17, align 8, !tbaa !84
  %19 = load i16, ptr %18, align 1, !tbaa !60
  %20 = load ptr, ptr %8, align 8, !tbaa !82
  %21 = getelementptr inbounds %struct.NormalizeLocal, ptr %20, i64 0
  %22 = getelementptr inbounds nuw %struct.NormalizeLocal, ptr %21, i32 0, i32 0
  store i16 %19, ptr %22, align 4, !tbaa !71
  %23 = load ptr, ptr %7, align 8, !tbaa !82
  %24 = getelementptr inbounds %struct.NormalizeLocal, ptr %23, i64 0
  %25 = getelementptr inbounds nuw %struct.NormalizeLocal, ptr %24, i32 0, i32 0
  store i16 %19, ptr %25, align 4, !tbaa !71
  %26 = load ptr, ptr %6, align 8, !tbaa !26
  %27 = getelementptr inbounds nuw %struct.AVFrame, ptr %26, i32 0, i32 0
  %28 = getelementptr inbounds [8 x ptr], ptr %27, i64 0, i64 0
  %29 = load ptr, ptr %28, align 8, !tbaa !84
  %30 = load i16, ptr %29, align 1, !tbaa !60
  %31 = load ptr, ptr %8, align 8, !tbaa !82
  %32 = getelementptr inbounds %struct.NormalizeLocal, ptr %31, i64 1
  %33 = getelementptr inbounds nuw %struct.NormalizeLocal, ptr %32, i32 0, i32 0
  store i16 %30, ptr %33, align 4, !tbaa !71
  %34 = load ptr, ptr %7, align 8, !tbaa !82
  %35 = getelementptr inbounds %struct.NormalizeLocal, ptr %34, i64 1
  %36 = getelementptr inbounds nuw %struct.NormalizeLocal, ptr %35, i32 0, i32 0
  store i16 %30, ptr %36, align 4, !tbaa !71
  %37 = load ptr, ptr %6, align 8, !tbaa !26
  %38 = getelementptr inbounds nuw %struct.AVFrame, ptr %37, i32 0, i32 0
  %39 = getelementptr inbounds [8 x ptr], ptr %38, i64 0, i64 1
  %40 = load ptr, ptr %39, align 8, !tbaa !84
  %41 = load i16, ptr %40, align 1, !tbaa !60
  %42 = load ptr, ptr %8, align 8, !tbaa !82
  %43 = getelementptr inbounds %struct.NormalizeLocal, ptr %42, i64 2
  %44 = getelementptr inbounds nuw %struct.NormalizeLocal, ptr %43, i32 0, i32 0
  store i16 %41, ptr %44, align 4, !tbaa !71
  %45 = load ptr, ptr %7, align 8, !tbaa !82
  %46 = getelementptr inbounds %struct.NormalizeLocal, ptr %45, i64 2
  %47 = getelementptr inbounds nuw %struct.NormalizeLocal, ptr %46, i32 0, i32 0
  store i16 %41, ptr %47, align 4, !tbaa !71
  call void @llvm.lifetime.start.p0(i64 4, ptr %9) #6
  store i32 0, ptr %9, align 4, !tbaa !38
  br label %48

48:                                               ; preds = %290, %4
  %49 = load i32, ptr %9, align 4, !tbaa !38
  %50 = load ptr, ptr %6, align 8, !tbaa !26
  %51 = getelementptr inbounds nuw %struct.AVFrame, ptr %50, i32 0, i32 4
  %52 = load i32, ptr %51, align 4, !tbaa !85
  %53 = icmp slt i32 %49, %52
  br i1 %53, label %55, label %54

54:                                               ; preds = %48
  store i32 2, ptr %10, align 4
  call void @llvm.lifetime.end.p0(i64 4, ptr %9) #6
  br label %293

55:                                               ; preds = %48
  call void @llvm.lifetime.start.p0(i64 8, ptr %11) #6
  %56 = load ptr, ptr %6, align 8, !tbaa !26
  %57 = getelementptr inbounds nuw %struct.AVFrame, ptr %56, i32 0, i32 0
  %58 = getelementptr inbounds [8 x ptr], ptr %57, i64 0, i64 2
  %59 = load ptr, ptr %58, align 8, !tbaa !84
  %60 = load i32, ptr %9, align 4, !tbaa !38
  %61 = load ptr, ptr %6, align 8, !tbaa !26
  %62 = getelementptr inbounds nuw %struct.AVFrame, ptr %61, i32 0, i32 1
  %63 = getelementptr inbounds [8 x i32], ptr %62, i64 0, i64 2
  %64 = load i32, ptr %63, align 8, !tbaa !38
  %65 = mul nsw i32 %60, %64
  %66 = sext i32 %65 to i64
  %67 = getelementptr inbounds i8, ptr %59, i64 %66
  store ptr %67, ptr %11, align 8, !tbaa !102
  call void @llvm.lifetime.start.p0(i64 8, ptr %12) #6
  %68 = load ptr, ptr %6, align 8, !tbaa !26
  %69 = getelementptr inbounds nuw %struct.AVFrame, ptr %68, i32 0, i32 0
  %70 = getelementptr inbounds [8 x ptr], ptr %69, i64 0, i64 0
  %71 = load ptr, ptr %70, align 8, !tbaa !84
  %72 = load i32, ptr %9, align 4, !tbaa !38
  %73 = load ptr, ptr %6, align 8, !tbaa !26
  %74 = getelementptr inbounds nuw %struct.AVFrame, ptr %73, i32 0, i32 1
  %75 = getelementptr inbounds [8 x i32], ptr %74, i64 0, i64 0
  %76 = load i32, ptr %75, align 8, !tbaa !38
  %77 = mul nsw i32 %72, %76
  %78 = sext i32 %77 to i64
  %79 = getelementptr inbounds i8, ptr %71, i64 %78
  store ptr %79, ptr %12, align 8, !tbaa !102
  call void @llvm.lifetime.start.p0(i64 8, ptr %13) #6
  %80 = load ptr, ptr %6, align 8, !tbaa !26
  %81 = getelementptr inbounds nuw %struct.AVFrame, ptr %80, i32 0, i32 0
  %82 = getelementptr inbounds [8 x ptr], ptr %81, i64 0, i64 1
  %83 = load ptr, ptr %82, align 8, !tbaa !84
  %84 = load i32, ptr %9, align 4, !tbaa !38
  %85 = load ptr, ptr %6, align 8, !tbaa !26
  %86 = getelementptr inbounds nuw %struct.AVFrame, ptr %85, i32 0, i32 1
  %87 = getelementptr inbounds [8 x i32], ptr %86, i64 0, i64 1
  %88 = load i32, ptr %87, align 4, !tbaa !38
  %89 = mul nsw i32 %84, %88
  %90 = sext i32 %89 to i64
  %91 = getelementptr inbounds i8, ptr %83, i64 %90
  store ptr %91, ptr %13, align 8, !tbaa !102
  call void @llvm.lifetime.start.p0(i64 4, ptr %14) #6
  store i32 0, ptr %14, align 4, !tbaa !38
  br label %92

92:                                               ; preds = %286, %55
  %93 = load i32, ptr %14, align 4, !tbaa !38
  %94 = load ptr, ptr %6, align 8, !tbaa !26
  %95 = getelementptr inbounds nuw %struct.AVFrame, ptr %94, i32 0, i32 3
  %96 = load i32, ptr %95, align 8, !tbaa !90
  %97 = icmp slt i32 %93, %96
  br i1 %97, label %99, label %98

98:                                               ; preds = %92
  store i32 5, ptr %10, align 4
  call void @llvm.lifetime.end.p0(i64 4, ptr %14) #6
  br label %289

99:                                               ; preds = %92
  %100 = load ptr, ptr %7, align 8, !tbaa !82
  %101 = getelementptr inbounds %struct.NormalizeLocal, ptr %100, i64 0
  %102 = getelementptr inbounds nuw %struct.NormalizeLocal, ptr %101, i32 0, i32 0
  %103 = load i16, ptr %102, align 4, !tbaa !71
  %104 = zext i16 %103 to i32
  %105 = load ptr, ptr %11, align 8, !tbaa !102
  %106 = load i32, ptr %14, align 4, !tbaa !38
  %107 = sext i32 %106 to i64
  %108 = getelementptr inbounds i16, ptr %105, i64 %107
  %109 = load i16, ptr %108, align 2, !tbaa !67
  %110 = zext i16 %109 to i32
  %111 = icmp sgt i32 %104, %110
  br i1 %111, label %112, label %119

112:                                              ; preds = %99
  %113 = load ptr, ptr %11, align 8, !tbaa !102
  %114 = load i32, ptr %14, align 4, !tbaa !38
  %115 = sext i32 %114 to i64
  %116 = getelementptr inbounds i16, ptr %113, i64 %115
  %117 = load i16, ptr %116, align 2, !tbaa !67
  %118 = zext i16 %117 to i32
  br label %125

119:                                              ; preds = %99
  %120 = load ptr, ptr %7, align 8, !tbaa !82
  %121 = getelementptr inbounds %struct.NormalizeLocal, ptr %120, i64 0
  %122 = getelementptr inbounds nuw %struct.NormalizeLocal, ptr %121, i32 0, i32 0
  %123 = load i16, ptr %122, align 4, !tbaa !71
  %124 = zext i16 %123 to i32
  br label %125

125:                                              ; preds = %119, %112
  %126 = phi i32 [ %118, %112 ], [ %124, %119 ]
  %127 = trunc i32 %126 to i16
  %128 = load ptr, ptr %7, align 8, !tbaa !82
  %129 = getelementptr inbounds %struct.NormalizeLocal, ptr %128, i64 0
  %130 = getelementptr inbounds nuw %struct.NormalizeLocal, ptr %129, i32 0, i32 0
  store i16 %127, ptr %130, align 4, !tbaa !71
  %131 = load ptr, ptr %8, align 8, !tbaa !82
  %132 = getelementptr inbounds %struct.NormalizeLocal, ptr %131, i64 0
  %133 = getelementptr inbounds nuw %struct.NormalizeLocal, ptr %132, i32 0, i32 0
  %134 = load i16, ptr %133, align 4, !tbaa !71
  %135 = zext i16 %134 to i32
  %136 = load ptr, ptr %11, align 8, !tbaa !102
  %137 = load i32, ptr %14, align 4, !tbaa !38
  %138 = sext i32 %137 to i64
  %139 = getelementptr inbounds i16, ptr %136, i64 %138
  %140 = load i16, ptr %139, align 2, !tbaa !67
  %141 = zext i16 %140 to i32
  %142 = icmp sgt i32 %135, %141
  br i1 %142, label %143, label %149

143:                                              ; preds = %125
  %144 = load ptr, ptr %8, align 8, !tbaa !82
  %145 = getelementptr inbounds %struct.NormalizeLocal, ptr %144, i64 0
  %146 = getelementptr inbounds nuw %struct.NormalizeLocal, ptr %145, i32 0, i32 0
  %147 = load i16, ptr %146, align 4, !tbaa !71
  %148 = zext i16 %147 to i32
  br label %156

149:                                              ; preds = %125
  %150 = load ptr, ptr %11, align 8, !tbaa !102
  %151 = load i32, ptr %14, align 4, !tbaa !38
  %152 = sext i32 %151 to i64
  %153 = getelementptr inbounds i16, ptr %150, i64 %152
  %154 = load i16, ptr %153, align 2, !tbaa !67
  %155 = zext i16 %154 to i32
  br label %156

156:                                              ; preds = %149, %143
  %157 = phi i32 [ %148, %143 ], [ %155, %149 ]
  %158 = trunc i32 %157 to i16
  %159 = load ptr, ptr %8, align 8, !tbaa !82
  %160 = getelementptr inbounds %struct.NormalizeLocal, ptr %159, i64 0
  %161 = getelementptr inbounds nuw %struct.NormalizeLocal, ptr %160, i32 0, i32 0
  store i16 %158, ptr %161, align 4, !tbaa !71
  %162 = load ptr, ptr %7, align 8, !tbaa !82
  %163 = getelementptr inbounds %struct.NormalizeLocal, ptr %162, i64 1
  %164 = getelementptr inbounds nuw %struct.NormalizeLocal, ptr %163, i32 0, i32 0
  %165 = load i16, ptr %164, align 4, !tbaa !71
  %166 = zext i16 %165 to i32
  %167 = load ptr, ptr %12, align 8, !tbaa !102
  %168 = load i32, ptr %14, align 4, !tbaa !38
  %169 = sext i32 %168 to i64
  %170 = getelementptr inbounds i16, ptr %167, i64 %169
  %171 = load i16, ptr %170, align 2, !tbaa !67
  %172 = zext i16 %171 to i32
  %173 = icmp sgt i32 %166, %172
  br i1 %173, label %174, label %181

174:                                              ; preds = %156
  %175 = load ptr, ptr %12, align 8, !tbaa !102
  %176 = load i32, ptr %14, align 4, !tbaa !38
  %177 = sext i32 %176 to i64
  %178 = getelementptr inbounds i16, ptr %175, i64 %177
  %179 = load i16, ptr %178, align 2, !tbaa !67
  %180 = zext i16 %179 to i32
  br label %187

181:                                              ; preds = %156
  %182 = load ptr, ptr %7, align 8, !tbaa !82
  %183 = getelementptr inbounds %struct.NormalizeLocal, ptr %182, i64 1
  %184 = getelementptr inbounds nuw %struct.NormalizeLocal, ptr %183, i32 0, i32 0
  %185 = load i16, ptr %184, align 4, !tbaa !71
  %186 = zext i16 %185 to i32
  br label %187

187:                                              ; preds = %181, %174
  %188 = phi i32 [ %180, %174 ], [ %186, %181 ]
  %189 = trunc i32 %188 to i16
  %190 = load ptr, ptr %7, align 8, !tbaa !82
  %191 = getelementptr inbounds %struct.NormalizeLocal, ptr %190, i64 1
  %192 = getelementptr inbounds nuw %struct.NormalizeLocal, ptr %191, i32 0, i32 0
  store i16 %189, ptr %192, align 4, !tbaa !71
  %193 = load ptr, ptr %8, align 8, !tbaa !82
  %194 = getelementptr inbounds %struct.NormalizeLocal, ptr %193, i64 1
  %195 = getelementptr inbounds nuw %struct.NormalizeLocal, ptr %194, i32 0, i32 0
  %196 = load i16, ptr %195, align 4, !tbaa !71
  %197 = zext i16 %196 to i32
  %198 = load ptr, ptr %12, align 8, !tbaa !102
  %199 = load i32, ptr %14, align 4, !tbaa !38
  %200 = sext i32 %199 to i64
  %201 = getelementptr inbounds i16, ptr %198, i64 %200
  %202 = load i16, ptr %201, align 2, !tbaa !67
  %203 = zext i16 %202 to i32
  %204 = icmp sgt i32 %197, %203
  br i1 %204, label %205, label %211

205:                                              ; preds = %187
  %206 = load ptr, ptr %8, align 8, !tbaa !82
  %207 = getelementptr inbounds %struct.NormalizeLocal, ptr %206, i64 1
  %208 = getelementptr inbounds nuw %struct.NormalizeLocal, ptr %207, i32 0, i32 0
  %209 = load i16, ptr %208, align 4, !tbaa !71
  %210 = zext i16 %209 to i32
  br label %218

211:                                              ; preds = %187
  %212 = load ptr, ptr %12, align 8, !tbaa !102
  %213 = load i32, ptr %14, align 4, !tbaa !38
  %214 = sext i32 %213 to i64
  %215 = getelementptr inbounds i16, ptr %212, i64 %214
  %216 = load i16, ptr %215, align 2, !tbaa !67
  %217 = zext i16 %216 to i32
  br label %218

218:                                              ; preds = %211, %205
  %219 = phi i32 [ %210, %205 ], [ %217, %211 ]
  %220 = trunc i32 %219 to i16
  %221 = load ptr, ptr %8, align 8, !tbaa !82
  %222 = getelementptr inbounds %struct.NormalizeLocal, ptr %221, i64 1
  %223 = getelementptr inbounds nuw %struct.NormalizeLocal, ptr %222, i32 0, i32 0
  store i16 %220, ptr %223, align 4, !tbaa !71
  %224 = load ptr, ptr %7, align 8, !tbaa !82
  %225 = getelementptr inbounds %struct.NormalizeLocal, ptr %224, i64 2
  %226 = getelementptr inbounds nuw %struct.NormalizeLocal, ptr %225, i32 0, i32 0
  %227 = load i16, ptr %226, align 4, !tbaa !71
  %228 = zext i16 %227 to i32
  %229 = load ptr, ptr %13, align 8, !tbaa !102
  %230 = load i32, ptr %14, align 4, !tbaa !38
  %231 = sext i32 %230 to i64
  %232 = getelementptr inbounds i16, ptr %229, i64 %231
  %233 = load i16, ptr %232, align 2, !tbaa !67
  %234 = zext i16 %233 to i32
  %235 = icmp sgt i32 %228, %234
  br i1 %235, label %236, label %243

236:                                              ; preds = %218
  %237 = load ptr, ptr %13, align 8, !tbaa !102
  %238 = load i32, ptr %14, align 4, !tbaa !38
  %239 = sext i32 %238 to i64
  %240 = getelementptr inbounds i16, ptr %237, i64 %239
  %241 = load i16, ptr %240, align 2, !tbaa !67
  %242 = zext i16 %241 to i32
  br label %249

243:                                              ; preds = %218
  %244 = load ptr, ptr %7, align 8, !tbaa !82
  %245 = getelementptr inbounds %struct.NormalizeLocal, ptr %244, i64 2
  %246 = getelementptr inbounds nuw %struct.NormalizeLocal, ptr %245, i32 0, i32 0
  %247 = load i16, ptr %246, align 4, !tbaa !71
  %248 = zext i16 %247 to i32
  br label %249

249:                                              ; preds = %243, %236
  %250 = phi i32 [ %242, %236 ], [ %248, %243 ]
  %251 = trunc i32 %250 to i16
  %252 = load ptr, ptr %7, align 8, !tbaa !82
  %253 = getelementptr inbounds %struct.NormalizeLocal, ptr %252, i64 2
  %254 = getelementptr inbounds nuw %struct.NormalizeLocal, ptr %253, i32 0, i32 0
  store i16 %251, ptr %254, align 4, !tbaa !71
  %255 = load ptr, ptr %8, align 8, !tbaa !82
  %256 = getelementptr inbounds %struct.NormalizeLocal, ptr %255, i64 2
  %257 = getelementptr inbounds nuw %struct.NormalizeLocal, ptr %256, i32 0, i32 0
  %258 = load i16, ptr %257, align 4, !tbaa !71
  %259 = zext i16 %258 to i32
  %260 = load ptr, ptr %13, align 8, !tbaa !102
  %261 = load i32, ptr %14, align 4, !tbaa !38
  %262 = sext i32 %261 to i64
  %263 = getelementptr inbounds i16, ptr %260, i64 %262
  %264 = load i16, ptr %263, align 2, !tbaa !67
  %265 = zext i16 %264 to i32
  %266 = icmp sgt i32 %259, %265
  br i1 %266, label %267, label %273

267:                                              ; preds = %249
  %268 = load ptr, ptr %8, align 8, !tbaa !82
  %269 = getelementptr inbounds %struct.NormalizeLocal, ptr %268, i64 2
  %270 = getelementptr inbounds nuw %struct.NormalizeLocal, ptr %269, i32 0, i32 0
  %271 = load i16, ptr %270, align 4, !tbaa !71
  %272 = zext i16 %271 to i32
  br label %280

273:                                              ; preds = %249
  %274 = load ptr, ptr %13, align 8, !tbaa !102
  %275 = load i32, ptr %14, align 4, !tbaa !38
  %276 = sext i32 %275 to i64
  %277 = getelementptr inbounds i16, ptr %274, i64 %276
  %278 = load i16, ptr %277, align 2, !tbaa !67
  %279 = zext i16 %278 to i32
  br label %280

280:                                              ; preds = %273, %267
  %281 = phi i32 [ %272, %267 ], [ %279, %273 ]
  %282 = trunc i32 %281 to i16
  %283 = load ptr, ptr %8, align 8, !tbaa !82
  %284 = getelementptr inbounds %struct.NormalizeLocal, ptr %283, i64 2
  %285 = getelementptr inbounds nuw %struct.NormalizeLocal, ptr %284, i32 0, i32 0
  store i16 %282, ptr %285, align 4, !tbaa !71
  br label %286

286:                                              ; preds = %280
  %287 = load i32, ptr %14, align 4, !tbaa !38
  %288 = add nsw i32 %287, 1
  store i32 %288, ptr %14, align 4, !tbaa !38
  br label %92, !llvm.loop !103

289:                                              ; preds = %98
  call void @llvm.lifetime.end.p0(i64 8, ptr %13) #6
  call void @llvm.lifetime.end.p0(i64 8, ptr %12) #6
  call void @llvm.lifetime.end.p0(i64 8, ptr %11) #6
  br label %290

290:                                              ; preds = %289
  %291 = load i32, ptr %9, align 4, !tbaa !38
  %292 = add nsw i32 %291, 1
  store i32 %292, ptr %9, align 4, !tbaa !38
  br label %48, !llvm.loop !104

293:                                              ; preds = %54
  ret void
}