; Function Attrs: nofree norecurse nosync nounwind memory(read, argmem: readwrite, inaccessiblemem: none) uwtable
define internal void @find_min_max_planar_16(ptr readnone captures(none) %0, ptr noundef readonly captures(none) %1, ptr noundef captures(none) initializes((0, 2), (12, 14), (24, 26)) %2, ptr noundef captures(none) initializes((0, 2), (12, 14), (24, 26)) %3) #5 {
  %5 = getelementptr inbounds nuw i8, ptr %1, i64 16
  %6 = load ptr, ptr %5, align 8, !tbaa !76
  %7 = load i16, ptr %6, align 1, !tbaa !73
  store i16 %7, ptr %3, align 4, !tbaa !51
  store i16 %7, ptr %2, align 4, !tbaa !51
  %8 = load ptr, ptr %1, align 8, !tbaa !76
  %9 = load i16, ptr %8, align 1, !tbaa !73
  %10 = getelementptr inbounds nuw i8, ptr %3, i64 12
  store i16 %9, ptr %10, align 4, !tbaa !51
  %11 = getelementptr inbounds nuw i8, ptr %2, i64 12
  store i16 %9, ptr %11, align 4, !tbaa !51
  %12 = getelementptr inbounds nuw i8, ptr %1, i64 8
  %13 = load ptr, ptr %12, align 8, !tbaa !76
  %14 = load i16, ptr %13, align 1, !tbaa !73
  %15 = getelementptr inbounds nuw i8, ptr %3, i64 24
  store i16 %14, ptr %15, align 4, !tbaa !51
  %16 = getelementptr inbounds nuw i8, ptr %2, i64 24
  store i16 %14, ptr %16, align 4, !tbaa !51
  %17 = getelementptr inbounds nuw i8, ptr %1, i64 108
  %18 = load i32, ptr %17, align 4, !tbaa !77
  %19 = icmp sgt i32 %18, 0
  br i1 %19, label %.lr.ph86, label %._crit_edge87

.lr.ph86:                                         ; preds = %4
  %20 = getelementptr inbounds nuw i8, ptr %1, i64 104
  %21 = load i32, ptr %20, align 8, !tbaa !82
  %22 = icmp sgt i32 %21, 0
  br i1 %22, label %.lr.ph.us.preheader, label %._crit_edge87

.lr.ph.us.preheader:                              ; preds = %.lr.ph86
  %23 = getelementptr inbounds nuw i8, ptr %1, i64 68
  %24 = load i32, ptr %23, align 4, !tbaa !57
  %25 = getelementptr inbounds nuw i8, ptr %1, i64 64
  %26 = load i32, ptr %25, align 8, !tbaa !57
  %27 = getelementptr inbounds nuw i8, ptr %1, i64 72
  %28 = load i32, ptr %27, align 8, !tbaa !57
  %29 = sext i32 %28 to i64
  %30 = sext i32 %26 to i64
  %31 = sext i32 %24 to i64
  %wide.trip.count93 = zext nneg i32 %18 to i64
  %wide.trip.count = zext nneg i32 %21 to i64
  br label %.lr.ph.us

.lr.ph.us:                                        ; preds = %.lr.ph.us.preheader, %._crit_edge.us
  %indvars.iv90 = phi i64 [ 0, %.lr.ph.us.preheader ], [ %indvars.iv.next91, %._crit_edge.us ]
  %32 = mul nsw i64 %indvars.iv90, %29
  %33 = getelementptr inbounds i8, ptr %6, i64 %32
  %34 = mul nsw i64 %indvars.iv90, %30
  %35 = getelementptr inbounds i8, ptr %8, i64 %34
  %36 = mul nsw i64 %indvars.iv90, %31
  %37 = getelementptr inbounds i8, ptr %13, i64 %36
  br label %38

38:                                               ; preds = %.lr.ph.us, %38
  %indvars.iv = phi i64 [ 0, %.lr.ph.us ], [ %indvars.iv.next, %38 ]
  %39 = load i16, ptr %2, align 4, !tbaa !51
  %40 = getelementptr inbounds nuw i16, ptr %33, i64 %indvars.iv
  %41 = load i16, ptr %40, align 2, !tbaa !46
  %..us = tail call i16 @llvm.umin.i16(i16 %39, i16 %41)
  store i16 %..us, ptr %2, align 4, !tbaa !51
  %42 = load i16, ptr %3, align 4, !tbaa !51
  %43 = load i16, ptr %40, align 2, !tbaa !46
  %.in78.us = tail call i16 @llvm.umax.i16(i16 %42, i16 %43)
  store i16 %.in78.us, ptr %3, align 4, !tbaa !51
  %44 = load i16, ptr %11, align 4, !tbaa !51
  %45 = getelementptr inbounds nuw i16, ptr %35, i64 %indvars.iv
  %46 = load i16, ptr %45, align 2, !tbaa !46
  %.in79.us = tail call i16 @llvm.umin.i16(i16 %44, i16 %46)
  store i16 %.in79.us, ptr %11, align 4, !tbaa !51
  %47 = load i16, ptr %10, align 4, !tbaa !51
  %48 = load i16, ptr %45, align 2, !tbaa !46
  %.in80.us = tail call i16 @llvm.umax.i16(i16 %47, i16 %48)
  store i16 %.in80.us, ptr %10, align 4, !tbaa !51
  %49 = load i16, ptr %16, align 4, !tbaa !51
  %50 = getelementptr inbounds nuw i16, ptr %37, i64 %indvars.iv
  %51 = load i16, ptr %50, align 2, !tbaa !46
  %.in81.us = tail call i16 @llvm.umin.i16(i16 %49, i16 %51)
  store i16 %.in81.us, ptr %16, align 4, !tbaa !51
  %52 = load i16, ptr %15, align 4, !tbaa !51
  %53 = load i16, ptr %50, align 2, !tbaa !46
  %.in82.us = tail call i16 @llvm.umax.i16(i16 %52, i16 %53)
  store i16 %.in82.us, ptr %15, align 4, !tbaa !51
  %indvars.iv.next = add nuw nsw i64 %indvars.iv, 1
  %exitcond.not = icmp eq i64 %indvars.iv.next, %wide.trip.count
  br i1 %exitcond.not, label %._crit_edge.us, label %38, !llvm.loop !95

._crit_edge.us:                                   ; preds = %38
  %indvars.iv.next91 = add nuw nsw i64 %indvars.iv90, 1
  %exitcond94.not = icmp eq i64 %indvars.iv.next91, %wide.trip.count93
  br i1 %exitcond94.not, label %._crit_edge87, label %.lr.ph.us, !llvm.loop !96

._crit_edge87:                                    ; preds = %._crit_edge.us, %.lr.ph86, %4
  ret void
}